; Function Attrs: mustprogress nounwind uwtable
define dso_local void @_ZNSt3__110ostrstreamD1Ev(ptr noundef nonnull align 8 dereferenceable(104) initializes((0, 16), (104, 112)) %0) unnamed_addr #0 align 2 personality ptr @__gxx_personality_v0 {
  store ptr getelementptr inbounds nuw inrange(-24, 16) (i8, ptr @_ZTVNSt3__110ostrstreamE, i64 24), ptr %0, align 8, !tbaa !4
  %2 = getelementptr inbounds nuw i8, ptr %0, i64 104
  store ptr getelementptr inbounds nuw inrange(-24, 16) (i8, ptr @_ZTVNSt3__110ostrstreamE, i64 64), ptr %2, align 8, !tbaa !4
  %3 = getelementptr inbounds nuw i8, ptr %0, i64 8
  store ptr getelementptr inbounds nuw inrange(-16, 112) (i8, ptr @_ZTVNSt3__112strstreambufE, i64 16), ptr %3, align 8, !tbaa !4
  %4 = getelementptr inbounds nuw i8, ptr %0, i64 24
  %5 = load ptr, ptr %4, align 8, !tbaa !23
  %.not.i.i = icmp eq ptr %5, null
  br i1 %.not.i.i, label %_ZNSt3__110ostrstreamD2Ev.exit, label %6

6:                                                ; preds = %1
  %7 = getelementptr inbounds nuw i8, ptr %0, i64 72
  %8 = load i32, ptr %7, align 8, !tbaa !7
  %9 = and i32 %8, 9
  %or.cond.i.i = icmp eq i32 %9, 1
  br i1 %or.cond.i.i, label %10, label %_ZNSt3__110ostrstreamD2Ev.exit

10:                                               ; preds = %6
  %11 = getelementptr inbounds nuw i8, ptr %0, i64 96
  %12 = load ptr, ptr %11, align 8, !tbaa !19
  %.not3.i.i = icmp eq ptr %12, null
  br i1 %.not3.i.i, label %14, label %13

13:                                               ; preds = %10
  invoke void %12(ptr noundef nonnull %5)
          to label %_ZNSt3__110ostrstreamD2Ev.exit unwind label %15

14:                                               ; preds = %10
  tail call void @_ZdaPv(ptr noundef nonnull %5) #20
  br label %_ZNSt3__110ostrstreamD2Ev.exit

15:                                               ; preds = %13
  %16 = landingpad { ptr, i32 }
          catch ptr null
  %17 = extractvalue { ptr, i32 } %16, 0
  tail call void @__clang_call_terminate(ptr %17) #21
  unreachable

_ZNSt3__110ostrstreamD2Ev.exit:                   ; preds = %1, %6, %13, %14
  store ptr getelementptr inbounds nuw inrange(-16, 112) (i8, ptr @_ZTVNSt3__115basic_streambufIcNS_11char_traitsIcEEEE, i64 16), ptr %3, align 8, !tbaa !4
  %18 = getelementptr inbounds nuw i8, ptr %0, i64 16
  tail call void @_ZNSt3__16localeD1Ev(ptr noundef nonnull align 8 dereferenceable(8) %18) #18
  tail call void @_ZNSt3__113basic_ostreamIcNS_11char_traitsIcEEED2Ev(ptr noundef nonnull align 8 dereferenceable(104) %0, ptr noundef nonnull getelementptr inbounds nuw (i8, ptr @_ZTTNSt3__110ostrstreamE, i64 8)) #18
  tail call void @_ZNSt3__19basic_iosIcNS_11char_traitsIcEEED2Ev(ptr noundef nonnull align 8 dereferenceable(148) %2) #18
  ret void
}